; Function Attrs: mustprogress nofree norecurse nosync nounwind willreturn memory(readwrite, inaccessiblemem: none) uwtable
define hidden void @_ZN7GCTimer21register_gc_pause_endERK11TimeInstantI30CompositeCounterRepresentation29CompositeElapsedCounterSourceE(ptr nocapture noundef nonnull align 8 dereferenceable(112) %0, ptr nocapture noundef nonnull readonly align 8 dereferenceable(16) %1) local_unnamed_addr #4 align 2 {
  %3 = getelementptr inbounds i8, ptr %0, i64 40
  %4 = getelementptr inbounds i8, ptr %0, i64 48
  %5 = getelementptr inbounds i8, ptr %0, i64 72
  %6 = load i32, ptr %5, align 8
  %7 = add nsw i32 %6, -1
  store i32 %7, ptr %5, align 8
  %8 = sext i32 %7 to i64
  %9 = getelementptr inbounds [6 x i32], ptr %4, i64 0, i64 %8
  %10 = load i32, ptr %9, align 4
  %11 = load ptr, ptr %3, align 8
  %12 = getelementptr inbounds i8, ptr %11, i64 8
  %13 = load ptr, ptr %12, align 8
  %14 = sext i32 %10 to i64
  %15 = getelementptr inbounds %class.GCPhase, ptr %13, i64 %14
  %16 = getelementptr inbounds i8, ptr %15, i64 32
  tail call void @llvm.memcpy.p0.p0.i64(ptr noundef nonnull align 8 dereferenceable(16) %16, ptr noundef nonnull readonly align 8 dereferenceable(16) %1, i64 16, i1 false)
  %17 = getelementptr inbounds i8, ptr %15, i64 48
  %18 = load i32, ptr %17, align 8
  %19 = icmp eq i32 %18, 0
  br i1 %19, label %20, label %_ZN14TimePartitions19report_gc_phase_endERK11TimeInstantI30CompositeCounterRepresentation29CompositeElapsedCounterSourceE.exit

20:                                               ; preds = %2
  %21 = getelementptr inbounds i8, ptr %15, i64 8
  %22 = load i32, ptr %21, align 8
  %23 = icmp eq i32 %22, 0
  br i1 %23, label %24, label %_ZN14TimePartitions19report_gc_phase_endERK11TimeInstantI30CompositeCounterRepresentation29CompositeElapsedCounterSourceE.exit

24:                                               ; preds = %20
  %25 = getelementptr inbounds i8, ptr %15, i64 16
  %26 = getelementptr inbounds i8, ptr %0, i64 80
  %27 = load <2 x i64>, ptr %16, align 8
  %28 = load <2 x i64>, ptr %25, align 8
  %29 = sub nsw <2 x i64> %27, %28
  %30 = load <2 x i64>, ptr %26, align 8
  %31 = add nsw <2 x i64> %30, %29
  store <2 x i64> %31, ptr %26, align 8
  %32 = getelementptr inbounds i8, ptr %0, i64 96
  %.sroa.0.0.copyload.i.i = load i64, ptr %32, align 8
  %.sroa.2.0..sroa_idx.i.i = getelementptr inbounds i8, ptr %0, i64 104
  %.sroa.2.0.copyload.i.i = load i64, ptr %.sroa.2.0..sroa_idx.i.i, align 8
  %33 = extractelement <2 x i64> %29, i64 0
  %34 = icmp sgt i64 %33, %.sroa.0.0.copyload.i.i
  %.sroa.0.0.copyload.sroa.speculated.i.i.i = tail call i64 @llvm.smax.i64(i64 %33, i64 %.sroa.0.0.copyload.i.i)
  %35 = extractelement <2 x i64> %29, i64 1
  %.sroa.2.0.copyload.sroa.speculated.i.i.i = select i1 %34, i64 %35, i64 %.sroa.2.0.copyload.i.i
  store i64 %.sroa.0.0.copyload.sroa.speculated.i.i.i, ptr %32, align 8
  store i64 %.sroa.2.0.copyload.sroa.speculated.i.i.i, ptr %.sroa.2.0..sroa_idx.i.i, align 8
  br label %_ZN14TimePartitions19report_gc_phase_endERK11TimeInstantI30CompositeCounterRepresentation29CompositeElapsedCounterSourceE.exit

_ZN14TimePartitions19report_gc_phase_endERK11TimeInstantI30CompositeCounterRepresentation29CompositeElapsedCounterSourceE.exit: ; preds = %2, %20, %24
  ret void
}